target datalayout = "e-m:e-p270:32:32-p271:32:32-p272:64:64-i64:64-i128:128-f80:128-n8:16:32:64-S128"
target triple = "x86_64-pc-linux-gnu"

%struct.RArray = type { %struct.RBasic, %union.anon }
%struct.RBasic = type { i64, i64 }
%union.anon = type { %struct.anon }
%struct.anon = type { i64, %union.anon.0, ptr }
%union.anon.0 = type { i64 }
%struct.MEMO = type { i64, i64, i64, i64, %union.anon.1 }
%union.anon.1 = type { i64 }

; Function Attrs: inlinehint nounwind sspstrong willreturn memory(read) uwtable
define internal i64 @RB_FL_TEST_RAW(i64 noundef %0, i64 noundef %1) #5 {
  %3 = alloca i64, align 8
  %4 = alloca i64, align 8
  store i64 %0, ptr %3, align 8, !tbaa !14
  store i64 %1, ptr %4, align 8, !tbaa !14
  %5 = load i64, ptr %3, align 8, !tbaa !14
  %6 = inttoptr i64 %5 to ptr
  %7 = getelementptr inbounds nuw %struct.RBasic, ptr %6, i32 0, i32 0
  %8 = load i64, ptr %7, align 8, !tbaa !88
  %9 = load i64, ptr %4, align 8, !tbaa !14
  %10 = and i64 %8, %9
  ret i64 %10
}

; Function Attrs: inlinehint nounwind sspstrong willreturn memory(read) uwtable
define internal ptr @rb_array_const_ptr(i64 noundef %0) #5 {
  %2 = alloca ptr, align 8
  %3 = alloca i64, align 8
  store i64 %0, ptr %3, align 8, !tbaa !14
  %4 = load i64, ptr %3, align 8, !tbaa !14
  %5 = call zeroext i1 @RB_FL_ANY_RAW(i64 noundef %4, i64 noundef 8192) #24
  br i1 %5, label %6, label %11

6:                                                ; preds = %1
  %7 = load i64, ptr %3, align 8, !tbaa !14
  %8 = inttoptr i64 %7 to ptr
  %9 = getelementptr inbounds nuw %struct.RArray, ptr %8, i32 0, i32 1
  %10 = getelementptr inbounds [1 x i64], ptr %9, i64 0, i64 0
  store ptr %10, ptr %2, align 8
  br label %17

11:                                               ; preds = %1
  %12 = load i64, ptr %3, align 8, !tbaa !14
  %13 = inttoptr i64 %12 to ptr
  %14 = getelementptr inbounds nuw %struct.RArray, ptr %13, i32 0, i32 1
  %15 = getelementptr inbounds nuw %struct.anon, ptr %14, i32 0, i32 2
  %16 = load ptr, ptr %15, align 8, !tbaa !31
  store ptr %16, ptr %2, align 8
  br label %17

17:                                               ; preds = %11, %6
  %18 = load ptr, ptr %2, align 8
  ret ptr %18
}

; Function Attrs: inlinehint nounwind sspstrong willreturn memory(read) uwtable
define internal i64 @RARRAY_EMBED_LEN(i64 noundef %0) #5 {
  %2 = alloca i64, align 8
  %3 = alloca i64, align 8
  store i64 %0, ptr %2, align 8, !tbaa !14
  call void @llvm.lifetime.start.p0(i64 8, ptr %3) #22
  %4 = load i64, ptr %2, align 8, !tbaa !14
  %5 = inttoptr i64 %4 to ptr
  %6 = getelementptr inbounds nuw %struct.RBasic, ptr %5, i32 0, i32 0
  %7 = load i64, ptr %6, align 8, !tbaa !88
  store i64 %7, ptr %3, align 8, !tbaa !14
  %8 = load i64, ptr %3, align 8, !tbaa !14
  %9 = and i64 %8, 4161536
  store i64 %9, ptr %3, align 8, !tbaa !14
  %10 = load i64, ptr %3, align 8, !tbaa !14
  %11 = lshr i64 %10, 15
  store i64 %11, ptr %3, align 8, !tbaa !14
  %12 = load i64, ptr %3, align 8, !tbaa !14
  call void @llvm.lifetime.end.p0(i64 8, ptr %3) #22
  ret i64 %12
}

; Function Attrs: inlinehint nounwind sspstrong willreturn memory(read) uwtable
define internal zeroext i1 @RB_FL_ANY_RAW(i64 noundef %0, i64 noundef %1) #5 {
  %3 = alloca i64, align 8
  %4 = alloca i64, align 8
  store i64 %0, ptr %3, align 8, !tbaa !14
  store i64 %1, ptr %4, align 8, !tbaa !14
  %5 = load i64, ptr %3, align 8, !tbaa !14
  %6 = load i64, ptr %4, align 8, !tbaa !14
  %7 = call i64 @RB_FL_TEST_RAW(i64 noundef %5, i64 noundef %6) #24
  %8 = icmp ne i64 %7, 0
  ret i1 %8
}

; Function Attrs: nounwind sspstrong uwtable
define internal i64 @enum_yield_array(i64 noundef %0) #0 {
  %2 = alloca i64, align 8
  %3 = alloca i64, align 8
  %4 = alloca i64, align 8
  %5 = alloca i32, align 4
  store i64 %0, ptr %3, align 8, !tbaa !14
  call void @llvm.lifetime.start.p0(i64 8, ptr %4) #22
  %6 = load i64, ptr %3, align 8, !tbaa !14
  %7 = call i64 @rb_array_len(i64 noundef %6) #24
  store i64 %7, ptr %4, align 8, !tbaa !14
  %8 = load i64, ptr %4, align 8, !tbaa !14
  %9 = icmp sgt i64 %8, 1
  br i1 %9, label %10, label %13

10:                                               ; preds = %1
  %11 = load i64, ptr %3, align 8, !tbaa !14
  %12 = call i64 @rb_yield_force_blockarg(i64 noundef %11)
  store i64 %12, ptr %2, align 8
  store i32 1, ptr %5, align 4
  br label %22

13:                                               ; preds = %1
  %14 = load i64, ptr %4, align 8, !tbaa !14
  %15 = icmp eq i64 %14, 1
  br i1 %15, label %16, label %20

16:                                               ; preds = %13
  %17 = load i64, ptr %3, align 8, !tbaa !14
  %18 = call i64 @RARRAY_AREF(i64 noundef %17, i64 noundef 0) #24
  %19 = call i64 @rb_yield(i64 noundef %18)
  store i64 %19, ptr %2, align 8
  store i32 1, ptr %5, align 4
  br label %22

20:                                               ; preds = %13
  %21 = call i64 @rb_yield_values2(i32 noundef 0, ptr noundef null)
  store i64 %21, ptr %2, align 8
  store i32 1, ptr %5, align 4
  br label %22

22:                                               ; preds = %20, %16, %10
  call void @llvm.lifetime.end.p0(i64 8, ptr %4) #22
  %23 = load i64, ptr %2, align 8
  ret i64 %23
}

; Function Attrs: inlinehint nounwind sspstrong willreturn memory(none) uwtable
define internal zeroext i1 @RB_NIL_P(i64 noundef %0) #6 {
  %2 = alloca i64, align 8
  store i64 %0, ptr %2, align 8, !tbaa !14
  %3 = load i64, ptr %2, align 8, !tbaa !14
  %4 = icmp eq i64 %3, 4
  ret i1 %4
}

; Function Attrs: inlinehint nounwind sspstrong willreturn memory(read) uwtable
define internal i64 @RARRAY_AREF(i64 noundef %0, i64 noundef %1) #5 {
  %3 = alloca i64, align 8
  %4 = alloca i64, align 8
  %5 = alloca i64, align 8
  store i64 %0, ptr %3, align 8, !tbaa !14
  store i64 %1, ptr %4, align 8, !tbaa !14
  call void @llvm.lifetime.start.p0(i64 8, ptr %5) #22
  %6 = load i64, ptr %3, align 8, !tbaa !14
  %7 = call ptr @rb_array_const_ptr(i64 noundef %6) #24
  %8 = load i64, ptr %4, align 8, !tbaa !14
  %9 = getelementptr i64, ptr %7, i64 %8
  %10 = load i64, ptr %9, align 8, !tbaa !14
  store i64 %10, ptr %5, align 8, !tbaa !14
  %11 = load i64, ptr %5, align 8, !tbaa !14
  call void @llvm.lifetime.end.p0(i64 8, ptr %5) #22
  ret i64 %11
}

; Function Attrs: nounwind sspstrong uwtable
define dso_local i64 @rb_enum_values_pack(i32 noundef %0, ptr noundef %1) #0 {
  %3 = alloca i64, align 8
  %4 = alloca i32, align 4
  %5 = alloca ptr, align 8
  store i32 %0, ptr %4, align 4, !tbaa !7
  store ptr %1, ptr %5, align 8, !tbaa !11
  %6 = load i32, ptr %4, align 4, !tbaa !7
  %7 = icmp eq i32 %6, 0
  br i1 %7, label %8, label %9

8:                                                ; preds = %2
  store i64 4, ptr %3, align 8
  br label %21

9:                                                ; preds = %2
  %10 = load i32, ptr %4, align 4, !tbaa !7
  %11 = icmp eq i32 %10, 1
  br i1 %11, label %12, label %16

12:                                               ; preds = %9
  %13 = load ptr, ptr %5, align 8, !tbaa !11
  %14 = getelementptr i64, ptr %13, i64 0
  %15 = load i64, ptr %14, align 8, !tbaa !14
  store i64 %15, ptr %3, align 8
  br label %21

16:                                               ; preds = %9
  %17 = load i32, ptr %4, align 4, !tbaa !7
  %18 = sext i32 %17 to i64
  %19 = load ptr, ptr %5, align 8, !tbaa !11
  %20 = call i64 @rb_ary_new_from_values(i64 noundef %18, ptr noundef %19)
  store i64 %20, ptr %3, align 8
  br label %21

21:                                               ; preds = %16, %12, %8
  %22 = load i64, ptr %3, align 8
  ret i64 %22
}

; Function Attrs: inlinehint nounwind sspstrong willreturn memory(read) uwtable
define internal i64 @rb_array_len(i64 noundef %0) #5 {
  %2 = alloca i64, align 8
  %3 = alloca i64, align 8
  store i64 %0, ptr %3, align 8, !tbaa !14
  %4 = load i64, ptr %3, align 8, !tbaa !14
  %5 = call zeroext i1 @RB_FL_ANY_RAW(i64 noundef %4, i64 noundef 8192) #24
  br i1 %5, label %6, label %9

6:                                                ; preds = %1
  %7 = load i64, ptr %3, align 8, !tbaa !14
  %8 = call i64 @RARRAY_EMBED_LEN(i64 noundef %7) #24
  store i64 %8, ptr %2, align 8
  br label %15

9:                                                ; preds = %1
  %10 = load i64, ptr %3, align 8, !tbaa !14
  %11 = inttoptr i64 %10 to ptr
  %12 = getelementptr inbounds nuw %struct.RArray, ptr %11, i32 0, i32 1
  %13 = getelementptr inbounds nuw %struct.anon, ptr %12, i32 0, i32 0
  %14 = load i64, ptr %13, align 8, !tbaa !31
  store i64 %14, ptr %2, align 8
  br label %15

15:                                               ; preds = %9, %6
  %16 = load i64, ptr %2, align 8
  ret i64 %16
}

; Function Attrs: nounwind sspstrong uwtable
define internal i64 @zip_ary(i64 noundef %0, i64 noundef %1, i32 noundef %2, ptr noundef %3, i64 noundef %4) #0 {
  %6 = alloca i64, align 8
  %7 = alloca i64, align 8
  %8 = alloca i32, align 4
  %9 = alloca ptr, align 8
  %10 = alloca i64, align 8
  %11 = alloca ptr, align 8
  %12 = alloca i64, align 8
  %13 = alloca i64, align 8
  %14 = alloca i64, align 8
  %15 = alloca i64, align 8
  %16 = alloca i32, align 4
  %17 = alloca i64, align 8
  %18 = alloca ptr, align 8
  %19 = alloca ptr, align 8
  store i64 %0, ptr %6, align 8, !tbaa !14
  store i64 %1, ptr %7, align 8, !tbaa !14
  store i32 %2, ptr %8, align 4, !tbaa !7
  store ptr %3, ptr %9, align 8, !tbaa !11
  store i64 %4, ptr %10, align 8, !tbaa !14
  call void @llvm.lifetime.start.p0(i64 8, ptr %11) #22
  %20 = load i64, ptr %7, align 8, !tbaa !14
  %21 = inttoptr i64 %20 to ptr
  store ptr %21, ptr %11, align 8, !tbaa !34
  call void @llvm.lifetime.start.p0(i64 8, ptr %12) #22
  %22 = load ptr, ptr %11, align 8, !tbaa !34
  %23 = getelementptr inbounds nuw %struct.MEMO, ptr %22, i32 0, i32 2
  %24 = load i64, ptr %23, align 8, !tbaa !46
  store i64 %24, ptr %12, align 8, !tbaa !14
  call void @llvm.lifetime.start.p0(i64 8, ptr %13) #22
  %25 = load ptr, ptr %11, align 8, !tbaa !34
  %26 = getelementptr inbounds nuw %struct.MEMO, ptr %25, i32 0, i32 3
  %27 = load i64, ptr %26, align 8, !tbaa !48
  store i64 %27, ptr %13, align 8, !tbaa !14
  call void @llvm.lifetime.start.p0(i64 8, ptr %14) #22
  %28 = load ptr, ptr %11, align 8, !tbaa !34
  %29 = getelementptr inbounds nuw %struct.MEMO, ptr %28, i32 0, i32 4
  %30 = load i64, ptr %29, align 8, !tbaa !31
  %31 = add i64 %30, 1
  store i64 %31, ptr %29, align 8, !tbaa !31
  store i64 %30, ptr %14, align 8, !tbaa !14
  call void @llvm.lifetime.start.p0(i64 8, ptr %15) #22
  call void @llvm.lifetime.start.p0(i64 4, ptr %16) #22
  %32 = load i64, ptr %13, align 8, !tbaa !14
  %33 = call i64 @rb_array_len(i64 noundef %32) #24
  %34 = add i64 %33, 1
  %35 = call i64 @rb_ary_new_capa(i64 noundef %34)
  store i64 %35, ptr %15, align 8, !tbaa !14
  %36 = load i64, ptr %15, align 8, !tbaa !14
  %37 = load i32, ptr %8, align 4, !tbaa !7
  %38 = load ptr, ptr %9, align 8, !tbaa !11
  %39 = call i64 @rb_enum_values_pack(i32 noundef %37, ptr noundef %38)
  call void @rb_ary_store(i64 noundef %36, i64 noundef 0, i64 noundef %39)
  store i32 0, ptr %16, align 4, !tbaa !7
  br label %40

40:                                               ; preds = %65, %5
  %41 = load i32, ptr %16, align 4, !tbaa !7
  %42 = sext i32 %41 to i64
  %43 = load i64, ptr %13, align 8, !tbaa !14
  %44 = call i64 @rb_array_len(i64 noundef %43) #24
  %45 = icmp slt i64 %42, %44
  br i1 %45, label %46, label %68

46:                                               ; preds = %40
  call void @llvm.lifetime.start.p0(i64 8, ptr %17) #22
  %47 = load i64, ptr %13, align 8, !tbaa !14
  %48 = load i32, ptr %16, align 4, !tbaa !7
  %49 = sext i32 %48 to i64
  %50 = call i64 @RARRAY_AREF(i64 noundef %47, i64 noundef %49) #24
  store i64 %50, ptr %17, align 8, !tbaa !14
  %51 = load i64, ptr %17, align 8, !tbaa !14
  %52 = call i64 @rb_array_len(i64 noundef %51) #24
  %53 = load i64, ptr %14, align 8, !tbaa !14
  %54 = icmp sle i64 %52, %53
  br i1 %54, label %55, label %58

55:                                               ; preds = %46
  %56 = load i64, ptr %15, align 8, !tbaa !14
  %57 = call i64 @rb_ary_push(i64 noundef %56, i64 noundef 4)
  br label %64

58:                                               ; preds = %46
  %59 = load i64, ptr %15, align 8, !tbaa !14
  %60 = load i64, ptr %17, align 8, !tbaa !14
  %61 = load i64, ptr %14, align 8, !tbaa !14
  %62 = call i64 @RARRAY_AREF(i64 noundef %60, i64 noundef %61) #24
  %63 = call i64 @rb_ary_push(i64 noundef %59, i64 noundef %62)
  br label %64

64:                                               ; preds = %58, %55
  call void @llvm.lifetime.end.p0(i64 8, ptr %17) #22
  br label %65

65:                                               ; preds = %64
  %66 = load i32, ptr %16, align 4, !tbaa !7
  %67 = add i32 %66, 1
  store i32 %67, ptr %16, align 4, !tbaa !7
  br label %40, !llvm.loop !125

68:                                               ; preds = %40
  %69 = load i64, ptr %12, align 8, !tbaa !14
  %70 = call zeroext i1 @RB_NIL_P(i64 noundef %69) #25
  br i1 %70, label %71, label %74

71:                                               ; preds = %68
  %72 = load i64, ptr %15, align 8, !tbaa !14
  %73 = call i64 @enum_yield_array(i64 noundef %72)
  br label %78

74:                                               ; preds = %68
  %75 = load i64, ptr %12, align 8, !tbaa !14
  %76 = load i64, ptr %15, align 8, !tbaa !14
  %77 = call i64 @rb_ary_push(i64 noundef %75, i64 noundef %76)
  br label %78

78:                                               ; preds = %74, %71
  call void @llvm.lifetime.start.p0(i64 8, ptr %18) #22
  store ptr %13, ptr %18, align 8, !tbaa !11
  call void asm sideeffect "", "*m,~{dirflag},~{fpsr},~{flags}"(ptr elementtype(ptr) %18) #22, !srcloc !126
  %79 = load ptr, ptr %18, align 8, !tbaa !11
  store ptr %79, ptr %19, align 8, !tbaa !11
  call void @llvm.lifetime.end.p0(i64 8, ptr %18) #22
  %80 = load ptr, ptr %19, align 8, !tbaa !11
  %81 = load volatile i64, ptr %80, align 8, !tbaa !14
  call void @llvm.lifetime.end.p0(i64 4, ptr %16) #22
  call void @llvm.lifetime.end.p0(i64 8, ptr %15) #22
  call void @llvm.lifetime.end.p0(i64 8, ptr %14) #22
  call void @llvm.lifetime.end.p0(i64 8, ptr %13) #22
  call void @llvm.lifetime.end.p0(i64 8, ptr %12) #22
  call void @llvm.lifetime.end.p0(i64 8, ptr %11) #22
  ret i64 4
}