; Function Attrs: nounwind sspstrong uwtable
define internal noundef i64 @zip_ary(i64 %0, i64 noundef %1, i32 noundef %2, ptr noundef %3, i64 %4) #0 {
  %6 = alloca i64, align 8
  %7 = alloca ptr, align 8
  %8 = inttoptr i64 %1 to ptr
  %9 = getelementptr inbounds nuw i8, ptr %8, i64 16
  %10 = load i64, ptr %9, align 8, !tbaa !60
  call void @llvm.lifetime.start.p0(i64 8, ptr nonnull %6) #14
  %11 = getelementptr inbounds nuw i8, ptr %8, i64 24
  %12 = load i64, ptr %11, align 8, !tbaa !67
  store i64 %12, ptr %6, align 8, !tbaa !7
  %13 = getelementptr inbounds nuw i8, ptr %8, i64 32
  %14 = load i64, ptr %13, align 8, !tbaa !22
  %15 = add i64 %14, 1
  store i64 %15, ptr %13, align 8, !tbaa !22
  %16 = inttoptr i64 %12 to ptr
  %17 = load i64, ptr %16, align 8, !tbaa !20
  %18 = and i64 %17, 8192
  %.not.i = icmp eq i64 %18, 0
  br i1 %.not.i, label %22, label %19

19:                                               ; preds = %5
  %20 = lshr i64 %17, 15
  %21 = and i64 %20, 127
  br label %rb_array_len.exit

22:                                               ; preds = %5
  %23 = getelementptr inbounds nuw i8, ptr %16, i64 16
  %24 = load i64, ptr %23, align 8, !tbaa !22
  br label %rb_array_len.exit

rb_array_len.exit:                                ; preds = %19, %22
  %.0.i = phi i64 [ %21, %19 ], [ %24, %22 ]
  %25 = add i64 %.0.i, 1
  %26 = tail call i64 @rb_ary_new_capa(i64 noundef %25) #14
  switch i32 %2, label %29 [
    i32 0, label %rb_enum_values_pack.exit
    i32 1, label %27
  ]

27:                                               ; preds = %rb_array_len.exit
  %28 = load i64, ptr %3, align 8, !tbaa !7
  br label %rb_enum_values_pack.exit

29:                                               ; preds = %rb_array_len.exit
  %30 = sext i32 %2 to i64
  %31 = tail call i64 @rb_ary_new_from_values(i64 noundef %30, ptr noundef %3) #14
  br label %rb_enum_values_pack.exit

rb_enum_values_pack.exit:                         ; preds = %rb_array_len.exit, %27, %29
  %.0.i22 = phi i64 [ %28, %27 ], [ %31, %29 ], [ 4, %rb_array_len.exit ]
  tail call void @rb_ary_store(i64 noundef %26, i64 noundef 0, i64 noundef %.0.i22) #14
  %32 = getelementptr inbounds nuw i8, ptr %16, i64 16
  %33 = getelementptr inbounds nuw i8, ptr %16, i64 32
  br label %34

34:                                               ; preds = %60, %rb_enum_values_pack.exit
  %.0 = phi i32 [ 0, %rb_enum_values_pack.exit ], [ %62, %60 ]
  %35 = sext i32 %.0 to i64
  %36 = load i64, ptr %16, align 8, !tbaa !20
  %37 = and i64 %36, 8192
  %.not.i23 = icmp eq i64 %37, 0
  br i1 %.not.i23, label %rb_array_len.exit25, label %rb_array_len.exit25.thread

rb_array_len.exit25:                              ; preds = %34
  %38 = load i64, ptr %32, align 8, !tbaa !22
  %39 = icmp sgt i64 %38, %35
  br i1 %39, label %43, label %63

rb_array_len.exit25.thread:                       ; preds = %34
  %40 = lshr i64 %36, 15
  %41 = and i64 %40, 127
  %42 = icmp sgt i64 %41, %35
  br i1 %42, label %RARRAY_AREF.exit, label %63

43:                                               ; preds = %rb_array_len.exit25
  %44 = load ptr, ptr %33, align 8, !tbaa !22
  br label %RARRAY_AREF.exit

RARRAY_AREF.exit:                                 ; preds = %rb_array_len.exit25.thread, %43
  %.0.i.i = phi ptr [ %44, %43 ], [ %32, %rb_array_len.exit25.thread ]
  %45 = getelementptr i64, ptr %.0.i.i, i64 %35
  %46 = load i64, ptr %45, align 8, !tbaa !7
  %47 = inttoptr i64 %46 to ptr
  %48 = load i64, ptr %47, align 8, !tbaa !20
  %49 = and i64 %48, 8192
  %.not.i26 = icmp eq i64 %49, 0
  br i1 %.not.i26, label %rb_array_len.exit28, label %rb_array_len.exit28.thread

rb_array_len.exit28:                              ; preds = %RARRAY_AREF.exit
  %50 = getelementptr inbounds nuw i8, ptr %47, i64 16
  %51 = load i64, ptr %50, align 8, !tbaa !22
  %.not = icmp sgt i64 %51, %14
  br i1 %.not, label %55, label %60

rb_array_len.exit28.thread:                       ; preds = %RARRAY_AREF.exit
  %52 = lshr i64 %48, 15
  %53 = and i64 %52, 127
  %.not37 = icmp sgt i64 %53, %14
  br i1 %.not37, label %.thread38, label %60

.thread38:                                        ; preds = %rb_array_len.exit28.thread
  %54 = getelementptr inbounds nuw i8, ptr %47, i64 16
  br label %RARRAY_AREF.exit31

55:                                               ; preds = %rb_array_len.exit28
  %56 = getelementptr inbounds nuw i8, ptr %47, i64 32
  %57 = load ptr, ptr %56, align 8, !tbaa !22
  br label %RARRAY_AREF.exit31

RARRAY_AREF.exit31:                               ; preds = %.thread38, %55
  %.0.i.i30 = phi ptr [ %54, %.thread38 ], [ %57, %55 ]
  %58 = getelementptr i64, ptr %.0.i.i30, i64 %14
  %59 = load i64, ptr %58, align 8, !tbaa !7
  br label %60

60:                                               ; preds = %rb_array_len.exit28, %rb_array_len.exit28.thread, %RARRAY_AREF.exit31
  %.sink = phi i64 [ %59, %RARRAY_AREF.exit31 ], [ 4, %rb_array_len.exit28.thread ], [ 4, %rb_array_len.exit28 ]
  %61 = tail call i64 @rb_ary_push(i64 noundef %26, i64 noundef %.sink) #14
  %62 = add i32 %.0, 1
  br label %34, !llvm.loop !117

63:                                               ; preds = %rb_array_len.exit25.thread, %rb_array_len.exit25
  %64 = icmp eq i64 %10, 4
  br i1 %64, label %65, label %90

65:                                               ; preds = %63
  %66 = inttoptr i64 %26 to ptr
  %67 = load i64, ptr %66, align 8, !tbaa !20
  %68 = and i64 %67, 8192
  %.not.i.i32 = icmp eq i64 %68, 0
  br i1 %.not.i.i32, label %72, label %69

69:                                               ; preds = %65
  %70 = lshr i64 %67, 15
  %71 = and i64 %70, 127
  br label %rb_array_len.exit.i

72:                                               ; preds = %65
  %73 = getelementptr inbounds nuw i8, ptr %66, i64 16
  %74 = load i64, ptr %73, align 8, !tbaa !22
  br label %rb_array_len.exit.i

rb_array_len.exit.i:                              ; preds = %72, %69
  %.0.i.i33 = phi i64 [ %71, %69 ], [ %74, %72 ]
  %75 = icmp sgt i64 %.0.i.i33, 1
  br i1 %75, label %76, label %78

76:                                               ; preds = %rb_array_len.exit.i
  %77 = tail call i64 @rb_yield_force_blockarg(i64 noundef %26) #14
  br label %enum_yield_array.exit

78:                                               ; preds = %rb_array_len.exit.i
  %79 = icmp eq i64 %.0.i.i33, 1
  br i1 %79, label %80, label %88

80:                                               ; preds = %78
  br i1 %.not.i.i32, label %83, label %81

81:                                               ; preds = %80
  %82 = getelementptr inbounds nuw i8, ptr %66, i64 16
  br label %RARRAY_AREF.exit.i

83:                                               ; preds = %80
  %84 = getelementptr inbounds nuw i8, ptr %66, i64 32
  %85 = load ptr, ptr %84, align 8, !tbaa !22
  br label %RARRAY_AREF.exit.i

RARRAY_AREF.exit.i:                               ; preds = %83, %81
  %.0.i.i.i = phi ptr [ %82, %81 ], [ %85, %83 ]
  %86 = load i64, ptr %.0.i.i.i, align 8, !tbaa !7
  %87 = tail call i64 @rb_yield(i64 noundef %86) #14
  br label %enum_yield_array.exit

88:                                               ; preds = %78
  %89 = tail call i64 @rb_yield_values2(i32 noundef 0, ptr noundef null) #14
  br label %enum_yield_array.exit

90:                                               ; preds = %63
  %91 = tail call i64 @rb_ary_push(i64 noundef %10, i64 noundef %26) #14
  br label %enum_yield_array.exit

enum_yield_array.exit:                            ; preds = %88, %RARRAY_AREF.exit.i, %76, %90
  call void @llvm.lifetime.start.p0(i64 8, ptr nonnull %7) #14
  store ptr %6, ptr %7, align 8, !tbaa !62
  call void asm sideeffect "", "*m,~{dirflag},~{fpsr},~{flags}"(ptr nonnull elementtype(ptr) %7) #14, !srcloc !118
  %92 = load ptr, ptr %7, align 8, !tbaa !62
  call void @llvm.lifetime.end.p0(i64 8, ptr nonnull %7) #14
  %93 = load volatile i64, ptr %92, align 8, !tbaa !7
  call void @llvm.lifetime.end.p0(i64 8, ptr nonnull %6) #14
  ret i64 4
}